; Function Attrs: mustprogress uwtable
define hidden void @_ZN14bv_decl_plugin14get_sort_namesER7svectorI12builtin_namejERK6symbol(ptr nonnull readnone align 8 captures(none) %0, ptr noundef nonnull align 8 dereferenceable(8) %1, ptr noundef nonnull readonly align 8 captures(none) dereferenceable(8) %2) unnamed_addr #3 align 2 {
  %4 = alloca %class.symbol, align 8
  %5 = alloca %struct.builtin_name, align 8
  %6 = alloca %struct.builtin_name, align 8
  %7 = load ptr, ptr %2, align 8, !tbaa !168
  %8 = load ptr, ptr @_ZN6symbol4nullE, align 8, !tbaa !168
  %9 = icmp eq ptr %7, %8
  call void @llvm.lifetime.start.p0(i64 8, ptr nonnull %4) #24
  br i1 %9, label %.critedge, label %10

10:                                               ; preds = %3
  call void @_ZN6symbolC1EPKc(ptr noundef nonnull align 8 dereferenceable(8) %4, ptr noundef nonnull @.str.100)
  %11 = load ptr, ptr %2, align 8, !tbaa !168
  %12 = load ptr, ptr %4, align 8, !tbaa !168
  %13 = icmp eq ptr %11, %12
  call void @llvm.lifetime.end.p0(i64 8, ptr nonnull %4) #24
  br i1 %13, label %14, label %33

.critedge:                                        ; preds = %3
  call void @llvm.lifetime.end.p0(i64 8, ptr nonnull %4) #24
  br label %14

14:                                               ; preds = %.critedge, %10
  call void @llvm.lifetime.start.p0(i64 16, ptr nonnull %5) #24
  store i32 0, ptr %5, align 8, !tbaa !169
  %15 = getelementptr inbounds nuw i8, ptr %5, i64 8
  call void @_ZN6symbolC1EPKc(ptr noundef nonnull align 8 dereferenceable(8) %15, ptr noundef nonnull @.str)
  %16 = load ptr, ptr %1, align 8, !tbaa !171
  %17 = icmp eq ptr %16, null
  br i1 %17, label %24, label %18

18:                                               ; preds = %14
  %19 = getelementptr inbounds i8, ptr %16, i64 -4
  %20 = load i32, ptr %19, align 4, !tbaa !38
  %21 = getelementptr inbounds i8, ptr %16, i64 -8
  %22 = load i32, ptr %21, align 4, !tbaa !38
  %23 = icmp eq i32 %20, %22
  br i1 %23, label %24, label %_ZN6vectorI12builtin_nameLb0EjE9push_backEOS0_.exit

24:                                               ; preds = %18, %14
  call void @_ZN6vectorI12builtin_nameLb0EjE13expand_vectorEv(ptr noundef nonnull align 8 dereferenceable(8) %1)
  %.pre.i = load ptr, ptr %1, align 8, !tbaa !171
  %.phi.trans.insert.i = getelementptr inbounds i8, ptr %.pre.i, i64 -4
  %.pre2.i = load i32, ptr %.phi.trans.insert.i, align 4, !tbaa !38
  br label %_ZN6vectorI12builtin_nameLb0EjE9push_backEOS0_.exit

_ZN6vectorI12builtin_nameLb0EjE9push_backEOS0_.exit: ; preds = %18, %24
  %25 = phi i32 [ %.pre2.i, %24 ], [ %20, %18 ]
  %26 = phi ptr [ %.pre.i, %24 ], [ %16, %18 ]
  %27 = zext i32 %25 to i64
  %28 = getelementptr inbounds nuw %struct.builtin_name, ptr %26, i64 %27
  call void @llvm.memcpy.p0.p0.i64(ptr noundef nonnull align 8 dereferenceable(16) %28, ptr noundef nonnull align 8 dereferenceable(16) %5, i64 16, i1 false), !tbaa.struct !174
  %29 = load ptr, ptr %1, align 8, !tbaa !171
  %30 = getelementptr inbounds i8, ptr %29, i64 -4
  %31 = load i32, ptr %30, align 4, !tbaa !38
  %32 = add i32 %31, 1
  store i32 %32, ptr %30, align 4, !tbaa !38
  call void @llvm.lifetime.end.p0(i64 16, ptr nonnull %5) #24
  br label %33

33:                                               ; preds = %_ZN6vectorI12builtin_nameLb0EjE9push_backEOS0_.exit, %10
  call void @llvm.lifetime.start.p0(i64 16, ptr nonnull %6) #24
  store i32 0, ptr %6, align 8, !tbaa !169
  %34 = getelementptr inbounds nuw i8, ptr %6, i64 8
  call void @_ZN6symbolC1EPKc(ptr noundef nonnull align 8 dereferenceable(8) %34, ptr noundef nonnull @.str.101)
  %35 = load ptr, ptr %1, align 8, !tbaa !171
  %36 = icmp eq ptr %35, null
  br i1 %36, label %43, label %37

37:                                               ; preds = %33
  %38 = getelementptr inbounds i8, ptr %35, i64 -4
  %39 = load i32, ptr %38, align 4, !tbaa !38
  %40 = getelementptr inbounds i8, ptr %35, i64 -8
  %41 = load i32, ptr %40, align 4, !tbaa !38
  %42 = icmp eq i32 %39, %41
  br i1 %42, label %43, label %_ZN6vectorI12builtin_nameLb0EjE9push_backEOS0_.exit7

43:                                               ; preds = %37, %33
  call void @_ZN6vectorI12builtin_nameLb0EjE13expand_vectorEv(ptr noundef nonnull align 8 dereferenceable(8) %1)
  %.pre.i4 = load ptr, ptr %1, align 8, !tbaa !171
  %.phi.trans.insert.i5 = getelementptr inbounds i8, ptr %.pre.i4, i64 -4
  %.pre2.i6 = load i32, ptr %.phi.trans.insert.i5, align 4, !tbaa !38
  br label %_ZN6vectorI12builtin_nameLb0EjE9push_backEOS0_.exit7

_ZN6vectorI12builtin_nameLb0EjE9push_backEOS0_.exit7: ; preds = %37, %43
  %44 = phi i32 [ %.pre2.i6, %43 ], [ %39, %37 ]
  %45 = phi ptr [ %.pre.i4, %43 ], [ %35, %37 ]
  %46 = zext i32 %44 to i64
  %47 = getelementptr inbounds nuw %struct.builtin_name, ptr %45, i64 %46
  call void @llvm.memcpy.p0.p0.i64(ptr noundef nonnull align 8 dereferenceable(16) %47, ptr noundef nonnull align 8 dereferenceable(16) %6, i64 16, i1 false), !tbaa.struct !174
  %48 = load ptr, ptr %1, align 8, !tbaa !171
  %49 = getelementptr inbounds i8, ptr %48, i64 -4
  %50 = load i32, ptr %49, align 4, !tbaa !38
  %51 = add i32 %50, 1
  store i32 %51, ptr %49, align 4, !tbaa !38
  call void @llvm.lifetime.end.p0(i64 16, ptr nonnull %6) #24
  ret void
}